target datalayout = "e-m:e-p270:32:32-p271:32:32-p272:64:64-i64:64-i128:128-f80:128-n8:16:32:64-S128"
target triple = "x86_64-pc-linux-gnu"

%class.EntryPoint = type { [10 x ptr] }
%class.DispatchTable = type { [10 x [256 x ptr]] }
%class.Template = type <{ i32, i32, i32, [4 x i8], ptr, i32, [4 x i8] }>
%class.TemplateInterpreterGenerator = type { %class.AbstractInterpreterGenerator, ptr, ptr }
%class.AbstractInterpreterGenerator = type { ptr }
%class.CodeletMark = type { %class.ResourceMark, ptr, ptr, %class.CodeBuffer }
%class.ResourceMark = type { %class.ResourceMarkImpl }
%class.ResourceMarkImpl = type { ptr, %"class.ResourceArea::SavedState" }
%"class.ResourceArea::SavedState" = type { ptr, ptr, ptr, i64 }
%class.CodeBuffer = type { ptr, %class.CodeSection, %class.CodeSection, %class.CodeSection, ptr, ptr, ptr, i32, ptr, %class.OopRecorder, ptr, ptr, ptr, ptr, ptr, i8, i32 }
%class.CodeSection = type { ptr, ptr, ptr, ptr, ptr, ptr, ptr, ptr, i8, i8, i32, i8, ptr }
%class.OopRecorder = type { %class.ValueRecorder, %class.ValueRecorder.0, ptr }
%class.ValueRecorder = type <{ ptr, ptr, ptr, ptr, i8, [7 x i8] }>
%class.ValueRecorder.0 = type <{ ptr, ptr, ptr, ptr, i8, [7 x i8] }>
%class.AbstractAssembler = type { ptr, ptr, ptr }

@_ZN19TemplateInterpreter13_normal_tableE = external global %class.DispatchTable, align 8
@.str.52 = private unnamed_addr constant [63 x i8] c"src/hotspot/share/interpreter/templateInterpreterGenerator.cpp\00", align 1
@_ZN19TemplateInterpreter13_wentry_pointE = external global [256 x ptr], align 16
@_ZN9Bytecodes6_flagsE = external global [512 x i16], align 16
@_ZN9Bytecodes5_nameE = external constant [239 x ptr], align 16
@_ZN13TemplateTable15_template_tableE = external global [239 x %class.Template], align 16
@_ZN13TemplateTable20_template_table_wideE = external global [239 x %class.Template], align 16
@PrintInterpreter = external global i8, align 1

; Function Attrs: mustprogress nounwind uwtable
define linkonce_odr hidden noundef ptr @_ZNK11CodeSection3endEv(ptr noundef nonnull align 8 dereferenceable(88) %0) #1 comdat align 2 {
  %2 = alloca ptr, align 8
  store ptr %0, ptr %2, align 8
  %3 = load ptr, ptr %2, align 8
  %4 = getelementptr inbounds %class.CodeSection, ptr %3, i32 0, i32 2
  %5 = load ptr, ptr %4, align 8
  ret ptr %5
}

; Function Attrs: mustprogress nounwind uwtable
define linkonce_odr hidden noundef ptr @_ZNK17AbstractAssembler12code_sectionEv(ptr noundef nonnull align 8 dereferenceable(24) %0) #1 comdat align 2 {
  %2 = alloca ptr, align 8
  store ptr %0, ptr %2, align 8
  %3 = load ptr, ptr %2, align 8
  %4 = getelementptr inbounds %class.AbstractAssembler, ptr %3, i32 0, i32 1
  %5 = load ptr, ptr %4, align 8
  ret ptr %5
}

; Function Attrs: mustprogress nounwind uwtable
define linkonce_odr hidden noundef ptr @_ZNK17AbstractAssembler2pcEv(ptr noundef nonnull align 8 dereferenceable(24) %0) #1 comdat align 2 {
  %2 = alloca ptr, align 8
  store ptr %0, ptr %2, align 8
  %3 = load ptr, ptr %2, align 8
  %4 = call noundef ptr @_ZNK17AbstractAssembler12code_sectionEv(ptr noundef nonnull align 8 dereferenceable(24) %3)
  %5 = call noundef ptr @_ZNK11CodeSection3endEv(ptr noundef nonnull align 8 dereferenceable(88) %4)
  ret ptr %5
}

; Function Attrs: mustprogress nounwind uwtable
define linkonce_odr hidden noundef ptr @_ZN12Disassembler4hookI25InterpreterMacroAssemblerEEPT_PKciS3_(ptr noundef %0, i32 noundef %1, ptr noundef %2) #1 comdat align 2 {
  %4 = alloca ptr, align 8
  %5 = alloca i32, align 4
  %6 = alloca ptr, align 8
  store ptr %0, ptr %4, align 8
  store i32 %1, ptr %5, align 4
  store ptr %2, ptr %6, align 8
  %7 = load i8, ptr @PrintInterpreter, align 1
  %8 = trunc i8 %7 to i1
  br i1 %8, label %9, label %13

9:                                                ; preds = %3
  %10 = load ptr, ptr %4, align 8
  %11 = load i32, ptr %5, align 4
  %12 = load ptr, ptr %6, align 8
  call void @_ZN12Disassembler5_hookEPKciP14MacroAssembler(ptr noundef %10, i32 noundef %11, ptr noundef %12)
  br label %13

13:                                               ; preds = %9, %3
  %14 = load ptr, ptr %6, align 8
  ret ptr %14
}

; Function Attrs: mustprogress nounwind uwtable
define linkonce_odr hidden void @_ZN9Bytecodes10wide_checkENS_4CodeE(i32 noundef %0) #1 comdat align 2 {
  %2 = alloca i32, align 4
  store i32 %0, ptr %2, align 4
  ret void
}

; Function Attrs: mustprogress nounwind uwtable
define linkonce_odr hidden noundef i32 @_ZN9Bytecodes5flagsEib(i32 noundef %0, i1 noundef zeroext %1) #1 comdat align 2 {
  %3 = alloca i32, align 4
  %4 = alloca i8, align 1
  store i32 %0, ptr %3, align 4
  %5 = zext i1 %1 to i8
  store i8 %5, ptr %4, align 1
  %6 = load i32, ptr %3, align 4
  %7 = load i8, ptr %4, align 1
  %8 = trunc i8 %7 to i1
  %9 = select i1 %8, i32 256, i32 0
  %10 = add nsw i32 %6, %9
  %11 = sext i32 %10 to i64
  %12 = getelementptr inbounds [512 x i16], ptr @_ZN9Bytecodes6_flagsE, i64 0, i64 %11
  %13 = load i16, ptr %12, align 2
  %14 = zext i16 %13 to i32
  ret i32 %14
}

; Function Attrs: mustprogress nounwind uwtable
define linkonce_odr hidden noundef zeroext i1 @_ZN9Bytecodes8is_validEi(i32 noundef %0) #1 comdat align 2 {
  %2 = alloca i32, align 4
  store i32 %0, ptr %2, align 4
  %3 = load i32, ptr %2, align 4
  %4 = icmp sle i32 0, %3
  br i1 %4, label %5, label %8

5:                                                ; preds = %1
  %6 = load i32, ptr %2, align 4
  %7 = icmp slt i32 %6, 239
  br label %8

8:                                                ; preds = %5, %1
  %9 = phi i1 [ false, %1 ], [ %7, %5 ]
  ret i1 %9
}

; Function Attrs: mustprogress nounwind uwtable
define linkonce_odr hidden void @_ZN9Bytecodes5checkENS_4CodeE(i32 noundef %0) #1 comdat align 2 {
  %2 = alloca i32, align 4
  store i32 %0, ptr %2, align 4
  ret void
}

; Function Attrs: mustprogress nounwind uwtable
define hidden void @_ZN28TemplateInterpreterGenerator20set_wide_entry_pointEP8TemplateRPh(ptr noundef nonnull align 8 dereferenceable(24) %0, ptr noundef %1, ptr noundef nonnull align 8 dereferenceable(8) %2) #1 align 2 {
  %4 = alloca ptr, align 8
  %5 = alloca ptr, align 8
  %6 = alloca ptr, align 8
  store ptr %0, ptr %4, align 8
  store ptr %1, ptr %5, align 8
  store ptr %2, ptr %6, align 8
  %7 = load ptr, ptr %4, align 8
  %8 = getelementptr inbounds %class.AbstractInterpreterGenerator, ptr %7, i32 0, i32 0
  %9 = load ptr, ptr %8, align 8
  %10 = call noundef ptr @_ZN12Disassembler4hookI25InterpreterMacroAssemblerEEPT_PKciS3_(ptr noundef @.str.52, i32 noundef 344, ptr noundef %9)
  %11 = call noundef ptr @_ZNK17AbstractAssembler2pcEv(ptr noundef nonnull align 8 dereferenceable(24) %10)
  %12 = load ptr, ptr %6, align 8
  store ptr %11, ptr %12, align 8
  %13 = load ptr, ptr %5, align 8
  call void @_ZN28TemplateInterpreterGenerator21generate_and_dispatchEP8Template8TosState(ptr noundef nonnull align 8 dereferenceable(24) %7, ptr noundef %13, i32 noundef 11)
  ret void
}

; Function Attrs: mustprogress nounwind uwtable
define linkonce_odr hidden noundef ptr @_ZN13TemplateTable17template_for_wideEN9Bytecodes4CodeE(i32 noundef %0) #1 comdat align 2 {
  %2 = alloca i32, align 4
  store i32 %0, ptr %2, align 4
  %3 = load i32, ptr %2, align 4
  call void @_ZN9Bytecodes10wide_checkENS_4CodeE(i32 noundef %3)
  %4 = load i32, ptr %2, align 4
  %5 = sext i32 %4 to i64
  %6 = getelementptr inbounds [239 x %class.Template], ptr @_ZN13TemplateTable20_template_table_wideE, i64 0, i64 %5
  ret ptr %6
}

; Function Attrs: mustprogress nounwind uwtable
define linkonce_odr hidden noundef zeroext i1 @_ZN9Bytecodes15wide_is_definedEi(i32 noundef %0) #1 comdat align 2 {
  %2 = alloca i32, align 4
  store i32 %0, ptr %2, align 4
  %3 = load i32, ptr %2, align 4
  %4 = call noundef zeroext i1 @_ZN9Bytecodes10is_definedEi(i32 noundef %3)
  br i1 %4, label %5, label %9

5:                                                ; preds = %1
  %6 = load i32, ptr %2, align 4
  %7 = call noundef i32 @_ZN9Bytecodes5flagsEib(i32 noundef %6, i1 noundef zeroext true)
  %8 = icmp ne i32 %7, 0
  br label %9

9:                                                ; preds = %5, %1
  %10 = phi i1 [ false, %1 ], [ %8, %5 ]
  ret i1 %10
}

; Function Attrs: mustprogress nounwind uwtable
define linkonce_odr hidden noundef ptr @_ZN13TemplateTable12template_forEN9Bytecodes4CodeE(i32 noundef %0) #1 comdat align 2 {
  %2 = alloca i32, align 4
  store i32 %0, ptr %2, align 4
  %3 = load i32, ptr %2, align 4
  call void @_ZN9Bytecodes5checkENS_4CodeE(i32 noundef %3)
  %4 = load i32, ptr %2, align 4
  %5 = sext i32 %4 to i64
  %6 = getelementptr inbounds [239 x %class.Template], ptr @_ZN13TemplateTable15_template_tableE, i64 0, i64 %5
  ret ptr %6
}

; Function Attrs: mustprogress nounwind uwtable
define linkonce_odr hidden noundef zeroext i1 @_ZN9Bytecodes10is_definedEi(i32 noundef %0) #1 comdat align 2 {
  %2 = alloca i32, align 4
  store i32 %0, ptr %2, align 4
  %3 = load i32, ptr %2, align 4
  %4 = call noundef zeroext i1 @_ZN9Bytecodes8is_validEi(i32 noundef %3)
  br i1 %4, label %5, label %9

5:                                                ; preds = %1
  %6 = load i32, ptr %2, align 4
  %7 = call noundef i32 @_ZN9Bytecodes5flagsEib(i32 noundef %6, i1 noundef zeroext false)
  %8 = icmp ne i32 %7, 0
  br label %9

9:                                                ; preds = %5, %1
  %10 = phi i1 [ false, %1 ], [ %8, %5 ]
  ret i1 %10
}

; Function Attrs: mustprogress nounwind uwtable
define linkonce_odr hidden noundef ptr @_ZN9Bytecodes4nameENS_4CodeE(i32 noundef %0) #1 comdat align 2 {
  %2 = alloca i32, align 4
  store i32 %0, ptr %2, align 4
  %3 = load i32, ptr %2, align 4
  call void @_ZN9Bytecodes5checkENS_4CodeE(i32 noundef %3)
  %4 = load i32, ptr %2, align 4
  %5 = sext i32 %4 to i64
  %6 = getelementptr inbounds [239 x ptr], ptr @_ZN9Bytecodes5_nameE, i64 0, i64 %5
  %7 = load ptr, ptr %6, align 8
  ret ptr %7
}

; Function Attrs: mustprogress nounwind uwtable
define hidden void @_ZN28TemplateInterpreterGenerator16set_entry_pointsEN9Bytecodes4CodeE(ptr noundef nonnull align 8 dereferenceable(24) %0, i32 noundef %1) #1 align 2 {
  %3 = alloca ptr, align 8
  %4 = alloca i32, align 4
  %5 = alloca %class.CodeletMark, align 8
  %6 = alloca ptr, align 8
  %7 = alloca ptr, align 8
  %8 = alloca ptr, align 8
  %9 = alloca ptr, align 8
  %10 = alloca ptr, align 8
  %11 = alloca ptr, align 8
  %12 = alloca ptr, align 8
  %13 = alloca ptr, align 8
  %14 = alloca ptr, align 8
  %15 = alloca ptr, align 8
  %16 = alloca ptr, align 8
  %17 = alloca ptr, align 8
  %18 = alloca ptr, align 8
  %19 = alloca %class.EntryPoint, align 8
  store ptr %0, ptr %3, align 8
  store i32 %1, ptr %4, align 4
  %20 = load ptr, ptr %3, align 8
  %21 = getelementptr inbounds %class.AbstractInterpreterGenerator, ptr %20, i32 0, i32 0
  %22 = load i32, ptr %4, align 4
  %23 = call noundef ptr @_ZN9Bytecodes4nameENS_4CodeE(i32 noundef %22)
  %24 = load i32, ptr %4, align 4
  call void @_ZN11CodeletMarkC1ERP25InterpreterMacroAssemblerPKcN9Bytecodes4CodeE(ptr noundef nonnull align 8 dereferenceable(504) %5, ptr noundef nonnull align 8 dereferenceable(8) %21, ptr noundef %23, i32 noundef %24)
  %25 = getelementptr inbounds %class.TemplateInterpreterGenerator, ptr %20, i32 0, i32 2
  %26 = load ptr, ptr %25, align 8
  store ptr %26, ptr %6, align 8
  %27 = getelementptr inbounds %class.TemplateInterpreterGenerator, ptr %20, i32 0, i32 2
  %28 = load ptr, ptr %27, align 8
  store ptr %28, ptr %7, align 8
  %29 = getelementptr inbounds %class.TemplateInterpreterGenerator, ptr %20, i32 0, i32 2
  %30 = load ptr, ptr %29, align 8
  store ptr %30, ptr %8, align 8
  %31 = getelementptr inbounds %class.TemplateInterpreterGenerator, ptr %20, i32 0, i32 2
  %32 = load ptr, ptr %31, align 8
  store ptr %32, ptr %9, align 8
  %33 = getelementptr inbounds %class.TemplateInterpreterGenerator, ptr %20, i32 0, i32 2
  %34 = load ptr, ptr %33, align 8
  store ptr %34, ptr %10, align 8
  %35 = getelementptr inbounds %class.TemplateInterpreterGenerator, ptr %20, i32 0, i32 2
  %36 = load ptr, ptr %35, align 8
  store ptr %36, ptr %11, align 8
  %37 = getelementptr inbounds %class.TemplateInterpreterGenerator, ptr %20, i32 0, i32 2
  %38 = load ptr, ptr %37, align 8
  store ptr %38, ptr %12, align 8
  %39 = getelementptr inbounds %class.TemplateInterpreterGenerator, ptr %20, i32 0, i32 2
  %40 = load ptr, ptr %39, align 8
  store ptr %40, ptr %13, align 8
  %41 = getelementptr inbounds %class.TemplateInterpreterGenerator, ptr %20, i32 0, i32 2
  %42 = load ptr, ptr %41, align 8
  store ptr %42, ptr %14, align 8
  %43 = getelementptr inbounds %class.TemplateInterpreterGenerator, ptr %20, i32 0, i32 1
  %44 = load ptr, ptr %43, align 8
  store ptr %44, ptr %15, align 8
  %45 = getelementptr inbounds %class.TemplateInterpreterGenerator, ptr %20, i32 0, i32 1
  %46 = load ptr, ptr %45, align 8
  store ptr %46, ptr %16, align 8
  %47 = load i32, ptr %4, align 4
  %48 = call noundef zeroext i1 @_ZN9Bytecodes10is_definedEi(i32 noundef %47)
  br i1 %48, label %49, label %53

49:                                               ; preds = %2
  %50 = load i32, ptr %4, align 4
  %51 = call noundef ptr @_ZN13TemplateTable12template_forEN9Bytecodes4CodeE(i32 noundef %50)
  store ptr %51, ptr %17, align 8
  %52 = load ptr, ptr %17, align 8
  call void @_ZN28TemplateInterpreterGenerator22set_short_entry_pointsEP8TemplateRPhS3_S3_S3_S3_S3_S3_S3_S3_(ptr noundef nonnull align 8 dereferenceable(24) %20, ptr noundef %52, ptr noundef nonnull align 8 dereferenceable(8) %6, ptr noundef nonnull align 8 dereferenceable(8) %8, ptr noundef nonnull align 8 dereferenceable(8) %9, ptr noundef nonnull align 8 dereferenceable(8) %10, ptr noundef nonnull align 8 dereferenceable(8) %11, ptr noundef nonnull align 8 dereferenceable(8) %12, ptr noundef nonnull align 8 dereferenceable(8) %13, ptr noundef nonnull align 8 dereferenceable(8) %14, ptr noundef nonnull align 8 dereferenceable(8) %15)
  br label %53

53:                                               ; preds = %49, %2
  %54 = load i32, ptr %4, align 4
  %55 = call noundef zeroext i1 @_ZN9Bytecodes15wide_is_definedEi(i32 noundef %54)
  br i1 %55, label %56, label %60

56:                                               ; preds = %53
  %57 = load i32, ptr %4, align 4
  %58 = call noundef ptr @_ZN13TemplateTable17template_for_wideEN9Bytecodes4CodeE(i32 noundef %57)
  store ptr %58, ptr %18, align 8
  %59 = load ptr, ptr %18, align 8
  call void @_ZN28TemplateInterpreterGenerator20set_wide_entry_pointEP8TemplateRPh(ptr noundef nonnull align 8 dereferenceable(24) %20, ptr noundef %59, ptr noundef nonnull align 8 dereferenceable(8) %16)
  br label %60

60:                                               ; preds = %56, %53
  %61 = load ptr, ptr %6, align 8
  %62 = load ptr, ptr %7, align 8
  %63 = load ptr, ptr %8, align 8
  %64 = load ptr, ptr %9, align 8
  %65 = load ptr, ptr %10, align 8
  %66 = load ptr, ptr %11, align 8
  %67 = load ptr, ptr %12, align 8
  %68 = load ptr, ptr %13, align 8
  %69 = load ptr, ptr %14, align 8
  %70 = load ptr, ptr %15, align 8
  call void @_ZN10EntryPointC1EPhS0_S0_S0_S0_S0_S0_S0_S0_S0_(ptr noundef nonnull align 8 dereferenceable(80) %19, ptr noundef %61, ptr noundef %62, ptr noundef %63, ptr noundef %64, ptr noundef %65, ptr noundef %66, ptr noundef %67, ptr noundef %68, ptr noundef %69, ptr noundef %70)
  %71 = load i32, ptr %4, align 4
  call void @_ZN13DispatchTable9set_entryEiR10EntryPoint(ptr noundef nonnull align 8 dereferenceable(20480) @_ZN19TemplateInterpreter13_normal_tableE, i32 noundef %71, ptr noundef nonnull align 8 dereferenceable(80) %19)
  %72 = load ptr, ptr %16, align 8
  %73 = load i32, ptr %4, align 4
  %74 = sext i32 %73 to i64
  %75 = getelementptr inbounds [256 x ptr], ptr @_ZN19TemplateInterpreter13_wentry_pointE, i64 0, i64 %74
  store ptr %72, ptr %75, align 8
  call void @_ZN11CodeletMarkD1Ev(ptr noundef nonnull align 8 dereferenceable(504) %5) #7
  ret void
}