; Function Attrs: mustprogress nounwind uwtable
define hidden void @_ZN28TemplateInterpreterGenerator16set_entry_pointsEN9Bytecodes4CodeE(ptr noundef nonnull align 8 dereferenceable(24) %0, i32 noundef %1) local_unnamed_addr #0 align 2 {
  %3 = alloca %class.CodeletMark, align 8
  %4 = alloca ptr, align 8
  %5 = alloca ptr, align 8
  %6 = alloca ptr, align 8
  %7 = alloca ptr, align 8
  %8 = alloca ptr, align 8
  %9 = alloca ptr, align 8
  %10 = alloca ptr, align 8
  %11 = alloca ptr, align 8
  %12 = alloca ptr, align 8
  %13 = alloca %class.EntryPoint, align 8
  %14 = sext i32 %1 to i64
  %15 = getelementptr inbounds [239 x ptr], ptr @_ZN9Bytecodes5_nameE, i64 0, i64 %14
  %16 = load ptr, ptr %15, align 8
  call void @_ZN11CodeletMarkC1ERP25InterpreterMacroAssemblerPKcN9Bytecodes4CodeE(ptr noundef nonnull align 8 dereferenceable(504) %3, ptr noundef nonnull align 8 dereferenceable(8) %0, ptr noundef %16, i32 noundef %1) #7
  %17 = getelementptr inbounds i8, ptr %0, i64 16
  %18 = load ptr, ptr %17, align 8
  store ptr %18, ptr %4, align 8
  store ptr %18, ptr %5, align 8
  store ptr %18, ptr %6, align 8
  store ptr %18, ptr %7, align 8
  store ptr %18, ptr %8, align 8
  store ptr %18, ptr %9, align 8
  store ptr %18, ptr %10, align 8
  store ptr %18, ptr %11, align 8
  %19 = getelementptr inbounds i8, ptr %0, i64 8
  %20 = load ptr, ptr %19, align 8
  store ptr %20, ptr %12, align 8
  %21 = icmp ult i32 %1, 239
  br i1 %21, label %_ZN9Bytecodes10is_definedEi.exit, label %_ZN9Bytecodes15wide_is_definedEi.exit.thread

_ZN9Bytecodes10is_definedEi.exit:                 ; preds = %2
  %22 = zext nneg i32 %1 to i64
  %23 = getelementptr inbounds [512 x i16], ptr @_ZN9Bytecodes6_flagsE, i64 0, i64 %22
  %24 = load i16, ptr %23, align 2
  %.not = icmp eq i16 %24, 0
  br i1 %.not, label %_ZN9Bytecodes15wide_is_definedEi.exit.thread, label %_ZN9Bytecodes10is_definedEi.exit.i

_ZN9Bytecodes10is_definedEi.exit.i:               ; preds = %_ZN9Bytecodes10is_definedEi.exit
  %25 = getelementptr inbounds [239 x %class.Template], ptr @_ZN13TemplateTable15_template_tableE, i64 0, i64 %14
  call void @_ZN28TemplateInterpreterGenerator22set_short_entry_pointsEP8TemplateRPhS3_S3_S3_S3_S3_S3_S3_S3_(ptr noundef nonnull align 8 dereferenceable(24) %0, ptr noundef nonnull %25, ptr noundef nonnull align 8 dereferenceable(8) %4, ptr noundef nonnull align 8 dereferenceable(8) %5, ptr noundef nonnull align 8 dereferenceable(8) %6, ptr noundef nonnull align 8 dereferenceable(8) %7, ptr noundef nonnull align 8 dereferenceable(8) %8, ptr noundef nonnull align 8 dereferenceable(8) %9, ptr noundef nonnull align 8 dereferenceable(8) %10, ptr noundef nonnull align 8 dereferenceable(8) %11, ptr noundef nonnull align 8 dereferenceable(8) %12)
  %.pre = load i16, ptr %23, align 2
  %26 = icmp eq i16 %.pre, 0
  br i1 %26, label %_ZN9Bytecodes15wide_is_definedEi.exit.thread, label %_ZN9Bytecodes15wide_is_definedEi.exit

_ZN9Bytecodes15wide_is_definedEi.exit:            ; preds = %_ZN9Bytecodes10is_definedEi.exit.i
  %27 = or disjoint i32 %1, 256
  %28 = zext nneg i32 %27 to i64
  %29 = getelementptr inbounds [512 x i16], ptr @_ZN9Bytecodes6_flagsE, i64 0, i64 %28
  %30 = load i16, ptr %29, align 2
  %.not11 = icmp eq i16 %30, 0
  br i1 %.not11, label %_ZN9Bytecodes15wide_is_definedEi.exit.thread, label %31

31:                                               ; preds = %_ZN9Bytecodes15wide_is_definedEi.exit
  %32 = getelementptr inbounds [239 x %class.Template], ptr @_ZN13TemplateTable20_template_table_wideE, i64 0, i64 %14
  %33 = load ptr, ptr %0, align 8
  %34 = load i8, ptr @PrintInterpreter, align 1
  %35 = trunc i8 %34 to i1
  br i1 %35, label %36, label %_ZN28TemplateInterpreterGenerator20set_wide_entry_pointEP8TemplateRPh.exit

36:                                               ; preds = %31
  call void @_ZN12Disassembler5_hookEPKciP14MacroAssembler(ptr noundef nonnull @.str.52, i32 noundef 344, ptr noundef %33) #7
  br label %_ZN28TemplateInterpreterGenerator20set_wide_entry_pointEP8TemplateRPh.exit

_ZN28TemplateInterpreterGenerator20set_wide_entry_pointEP8TemplateRPh.exit: ; preds = %31, %36
  %37 = getelementptr inbounds i8, ptr %33, i64 8
  %38 = load ptr, ptr %37, align 8
  %39 = getelementptr inbounds i8, ptr %38, i64 16
  %40 = load ptr, ptr %39, align 8
  call void @_ZN28TemplateInterpreterGenerator21generate_and_dispatchEP8Template8TosState(ptr noundef nonnull readonly align 8 dereferenceable(24) %0, ptr noundef nonnull %32, i32 noundef 11)
  br label %_ZN9Bytecodes15wide_is_definedEi.exit.thread

_ZN9Bytecodes15wide_is_definedEi.exit.thread:     ; preds = %_ZN9Bytecodes10is_definedEi.exit, %2, %_ZN9Bytecodes10is_definedEi.exit.i, %_ZN28TemplateInterpreterGenerator20set_wide_entry_pointEP8TemplateRPh.exit, %_ZN9Bytecodes15wide_is_definedEi.exit
  %.0 = phi ptr [ %40, %_ZN28TemplateInterpreterGenerator20set_wide_entry_pointEP8TemplateRPh.exit ], [ %20, %_ZN9Bytecodes15wide_is_definedEi.exit ], [ %20, %_ZN9Bytecodes10is_definedEi.exit.i ], [ %20, %2 ], [ %20, %_ZN9Bytecodes10is_definedEi.exit ]
  %41 = load ptr, ptr %4, align 8
  %42 = load ptr, ptr %5, align 8
  %43 = load ptr, ptr %6, align 8
  %44 = load ptr, ptr %7, align 8
  %45 = load ptr, ptr %8, align 8
  %46 = load ptr, ptr %9, align 8
  %47 = load ptr, ptr %10, align 8
  %48 = load ptr, ptr %11, align 8
  %49 = load ptr, ptr %12, align 8
  call void @_ZN10EntryPointC1EPhS0_S0_S0_S0_S0_S0_S0_S0_S0_(ptr noundef nonnull align 8 dereferenceable(80) %13, ptr noundef %41, ptr noundef %18, ptr noundef %42, ptr noundef %43, ptr noundef %44, ptr noundef %45, ptr noundef %46, ptr noundef %47, ptr noundef %48, ptr noundef %49) #7
  call void @_ZN13DispatchTable9set_entryEiR10EntryPoint(ptr noundef nonnull align 8 dereferenceable(20480) @_ZN19TemplateInterpreter13_normal_tableE, i32 noundef %1, ptr noundef nonnull align 8 dereferenceable(80) %13) #7
  %50 = getelementptr inbounds [256 x ptr], ptr @_ZN19TemplateInterpreter13_wentry_pointE, i64 0, i64 %14
  store ptr %.0, ptr %50, align 8
  call void @_ZN11CodeletMarkD1Ev(ptr noundef nonnull align 8 dereferenceable(504) %3) #7
  ret void
}